target datalayout = "e-m:e-p270:32:32-p271:32:32-p272:64:64-i64:64-i128:128-f80:128-n8:16:32:64-S128"
target triple = "x86_64-pc-linux-gnu"

%struct.Dar_Lib_t_ = type { ptr, i32, i32, [222 x i32], [222 x ptr], ptr, i32, ptr, [222 x ptr], ptr, [222 x ptr], ptr, [222 x ptr], [222 x i32], [222 x ptr], ptr, i32, i32, i32, [222 x i32], [222 x ptr], ptr, i32, [222 x i32], [222 x ptr], ptr, i32, ptr, i32, ptr, ptr, ptr, ptr, ptr }
%struct.Vec_Int_t_ = type { i32, i32, ptr }
%struct.Dar_LibDat_t_ = type { %union.anon, i32, i32, float, i8, [3 x i8] }
%union.anon = type { ptr }
%struct.Gia_Man_t_ = type { ptr, ptr, i32, i32, i32, i32, ptr, ptr, i32, i32, i32, ptr, ptr, %struct.Vec_Int_t_, %struct.Vec_Int_t_, i32, i32, i32, %struct.Vec_Int_t_, ptr, ptr, ptr, i32, i32, i32, i32, ptr, ptr, ptr, ptr, ptr, i32, i32, ptr, i32, ptr, ptr, ptr, ptr, ptr, ptr, ptr, ptr, ptr, ptr, ptr, ptr, ptr, ptr, ptr, ptr, ptr, ptr, %struct.Vec_Int_t_, %struct.Vec_Int_t_, ptr, ptr, ptr, ptr, ptr, ptr, ptr, ptr, ptr, ptr, ptr, ptr, ptr, ptr, ptr, ptr, ptr, ptr, ptr, ptr, ptr, i32, float, float, ptr, ptr, i32, ptr, ptr, ptr, ptr, ptr, ptr, ptr, ptr, ptr, ptr, ptr, ptr, ptr, ptr, ptr, i64, i64, ptr, ptr, i32, i32, i32, i32, i32, i32, i32, i32, i32, i32, i32, i32, ptr, ptr, ptr, ptr, ptr, ptr, ptr, ptr, i32, i32, i32, ptr, i32, i32, ptr, ptr, ptr, ptr, ptr, ptr, i32, i32, ptr, %struct.Vec_Int_t_, %struct.Vec_Int_t_, %struct.Vec_Int_t_, ptr, ptr, ptr }
%struct.Gia_Obj_t_ = type <{ i64, i32 }>

@s_DarLib = internal global ptr null, align 8

; Function Attrs: nounwind uwtable
define internal i32 @Vec_IntGetEntry(ptr noundef %0, i32 noundef %1) #0 {
  %3 = alloca ptr, align 8
  %4 = alloca i32, align 4
  store ptr %0, ptr %3, align 8
  store i32 %1, ptr %4, align 4
  %5 = load ptr, ptr %3, align 8
  %6 = load i32, ptr %4, align 4
  %7 = add nsw i32 %6, 1
  call void @Vec_IntFillExtra(ptr noundef %5, i32 noundef %7, i32 noundef 0)
  %8 = load ptr, ptr %3, align 8
  %9 = load i32, ptr %4, align 4
  %10 = call i32 @Vec_IntEntry(ptr noundef %8, i32 noundef %9)
  ret i32 %10
}

; Function Attrs: nounwind uwtable
define internal i32 @Gia_ObjLevelId(ptr noundef %0, i32 noundef %1) #0 {
  %3 = alloca ptr, align 8
  %4 = alloca i32, align 4
  store ptr %0, ptr %3, align 8
  store i32 %1, ptr %4, align 4
  %5 = load ptr, ptr %3, align 8
  %6 = getelementptr inbounds %struct.Gia_Man_t_, ptr %5, i32 0, i32 21
  %7 = load ptr, ptr %6, align 8
  %8 = load i32, ptr %4, align 4
  %9 = call i32 @Vec_IntGetEntry(ptr noundef %7, i32 noundef %8)
  ret i32 %9
}

; Function Attrs: nounwind uwtable
define internal i32 @Gia_ObjId(ptr noundef %0, ptr noundef %1) #0 {
  %3 = alloca ptr, align 8
  %4 = alloca ptr, align 8
  store ptr %0, ptr %3, align 8
  store ptr %1, ptr %4, align 8
  %5 = load ptr, ptr %4, align 8
  %6 = load ptr, ptr %3, align 8
  %7 = getelementptr inbounds %struct.Gia_Man_t_, ptr %6, i32 0, i32 6
  %8 = load ptr, ptr %7, align 8
  %9 = ptrtoint ptr %5 to i64
  %10 = ptrtoint ptr %8 to i64
  %11 = sub i64 %9, %10
  %12 = sdiv exact i64 %11, 12
  %13 = trunc i64 %12 to i32
  ret i32 %13
}

; Function Attrs: nounwind uwtable
define internal ptr @Gia_NotCond(ptr noundef %0, i32 noundef %1) #0 {
  %3 = alloca ptr, align 8
  %4 = alloca i32, align 4
  store ptr %0, ptr %3, align 8
  store i32 %1, ptr %4, align 4
  %5 = load ptr, ptr %3, align 8
  %6 = ptrtoint ptr %5 to i64
  %7 = load i32, ptr %4, align 4
  %8 = sext i32 %7 to i64
  %9 = xor i64 %6, %8
  %10 = inttoptr i64 %9 to ptr
  ret ptr %10
}

; Function Attrs: nounwind uwtable
define internal i32 @Abc_LitIsCompl(i32 noundef %0) #0 {
  %2 = alloca i32, align 4
  store i32 %0, ptr %2, align 4
  %3 = load i32, ptr %2, align 4
  %4 = and i32 %3, 1
  ret i32 %4
}

; Function Attrs: nounwind uwtable
define internal ptr @Gia_ManObj(ptr noundef %0, i32 noundef %1) #0 {
  %3 = alloca ptr, align 8
  %4 = alloca i32, align 4
  store ptr %0, ptr %3, align 8
  store i32 %1, ptr %4, align 4
  %5 = load ptr, ptr %3, align 8
  %6 = getelementptr inbounds %struct.Gia_Man_t_, ptr %5, i32 0, i32 6
  %7 = load ptr, ptr %6, align 8
  %8 = load i32, ptr %4, align 4
  %9 = sext i32 %8 to i64
  %10 = getelementptr inbounds %struct.Gia_Obj_t_, ptr %7, i64 %9
  ret ptr %10
}

; Function Attrs: nounwind uwtable
define internal i32 @Abc_Lit2Var(i32 noundef %0) #0 {
  %2 = alloca i32, align 4
  store i32 %0, ptr %2, align 4
  %3 = load i32, ptr %2, align 4
  %4 = ashr i32 %3, 1
  ret i32 %4
}

; Function Attrs: nounwind uwtable
define internal i32 @Gia_ObjLevel(ptr noundef %0, ptr noundef %1) #0 {
  %3 = alloca ptr, align 8
  %4 = alloca ptr, align 8
  store ptr %0, ptr %3, align 8
  store ptr %1, ptr %4, align 8
  %5 = load ptr, ptr %3, align 8
  %6 = load ptr, ptr %3, align 8
  %7 = load ptr, ptr %4, align 8
  %8 = call i32 @Gia_ObjId(ptr noundef %6, ptr noundef %7)
  %9 = call i32 @Gia_ObjLevelId(ptr noundef %5, i32 noundef %8)
  ret i32 %9
}

; Function Attrs: nounwind uwtable
define internal ptr @Gia_Regular(ptr noundef %0) #0 {
  %2 = alloca ptr, align 8
  store ptr %0, ptr %2, align 8
  %3 = load ptr, ptr %2, align 8
  %4 = ptrtoint ptr %3 to i64
  %5 = and i64 %4, -2
  %6 = inttoptr i64 %5 to ptr
  ret ptr %6
}

; Function Attrs: nounwind uwtable
define internal ptr @Gia_ObjFromLit(ptr noundef %0, i32 noundef %1) #0 {
  %3 = alloca ptr, align 8
  %4 = alloca i32, align 4
  store ptr %0, ptr %3, align 8
  store i32 %1, ptr %4, align 4
  %5 = load ptr, ptr %3, align 8
  %6 = load i32, ptr %4, align 4
  %7 = call i32 @Abc_Lit2Var(i32 noundef %6)
  %8 = call ptr @Gia_ManObj(ptr noundef %5, i32 noundef %7)
  %9 = load i32, ptr %4, align 4
  %10 = call i32 @Abc_LitIsCompl(i32 noundef %9)
  %11 = call ptr @Gia_NotCond(ptr noundef %8, i32 noundef %10)
  ret ptr %11
}

; Function Attrs: nounwind uwtable
define internal i32 @Abc_LitNotCond(i32 noundef %0, i32 noundef %1) #0 {
  %3 = alloca i32, align 4
  %4 = alloca i32, align 4
  store i32 %0, ptr %3, align 4
  store i32 %1, ptr %4, align 4
  %5 = load i32, ptr %3, align 4
  %6 = load i32, ptr %4, align 4
  %7 = icmp sgt i32 %6, 0
  %8 = zext i1 %7 to i32
  %9 = xor i32 %5, %8
  ret i32 %9
}

; Function Attrs: nounwind uwtable
define internal i32 @Vec_IntEntry(ptr noundef %0, i32 noundef %1) #0 {
  %3 = alloca ptr, align 8
  %4 = alloca i32, align 4
  store ptr %0, ptr %3, align 8
  store i32 %1, ptr %4, align 4
  %5 = load ptr, ptr %3, align 8
  %6 = getelementptr inbounds %struct.Vec_Int_t_, ptr %5, i32 0, i32 2
  %7 = load ptr, ptr %6, align 8
  %8 = load i32, ptr %4, align 4
  %9 = sext i32 %8 to i64
  %10 = getelementptr inbounds i32, ptr %7, i64 %9
  %11 = load i32, ptr %10, align 4
  ret i32 %11
}

; Function Attrs: nounwind uwtable
define internal i32 @Vec_IntSize(ptr noundef %0) #0 {
  %2 = alloca ptr, align 8
  store ptr %0, ptr %2, align 8
  %3 = load ptr, ptr %2, align 8
  %4 = getelementptr inbounds %struct.Vec_Int_t_, ptr %3, i32 0, i32 1
  %5 = load i32, ptr %4, align 4
  ret i32 %5
}

; Function Attrs: nounwind uwtable
define i32 @Dar2_LibCutMatch(ptr noundef %0, ptr noundef %1, i32 noundef %2) #0 {
  %4 = alloca ptr, align 8
  %5 = alloca ptr, align 8
  %6 = alloca i32, align 4
  %7 = alloca i32, align 4
  %8 = alloca ptr, align 8
  %9 = alloca i32, align 4
  store ptr %0, ptr %4, align 8
  store ptr %1, ptr %5, align 8
  store i32 %2, ptr %6, align 4
  %10 = load ptr, ptr @s_DarLib, align 8
  %11 = getelementptr inbounds %struct.Dar_Lib_t_, ptr %10, i32 0, i32 31
  %12 = load ptr, ptr %11, align 8
  %13 = load i32, ptr %6, align 4
  %14 = zext i32 %13 to i64
  %15 = getelementptr inbounds i8, ptr %12, i64 %14
  %16 = load i8, ptr %15, align 1
  %17 = sext i8 %16 to i32
  store i32 %17, ptr %7, align 4
  %18 = load ptr, ptr @s_DarLib, align 8
  %19 = getelementptr inbounds %struct.Dar_Lib_t_, ptr %18, i32 0, i32 29
  %20 = load ptr, ptr %19, align 8
  %21 = load ptr, ptr @s_DarLib, align 8
  %22 = getelementptr inbounds %struct.Dar_Lib_t_, ptr %21, i32 0, i32 32
  %23 = load ptr, ptr %22, align 8
  %24 = load i32, ptr %6, align 4
  %25 = zext i32 %24 to i64
  %26 = getelementptr inbounds i8, ptr %23, i64 %25
  %27 = load i8, ptr %26, align 1
  %28 = sext i8 %27 to i32
  %29 = sext i32 %28 to i64
  %30 = getelementptr inbounds ptr, ptr %20, i64 %29
  %31 = load ptr, ptr %30, align 8
  store ptr %31, ptr %8, align 8
  store i32 0, ptr %9, align 4
  br label %32

32:                                               ; preds = %78, %3
  %33 = load i32, ptr %9, align 4
  %34 = load ptr, ptr %5, align 8
  %35 = call i32 @Vec_IntSize(ptr noundef %34)
  %36 = icmp slt i32 %33, %35
  br i1 %36, label %37, label %81

37:                                               ; preds = %32
  %38 = load ptr, ptr %5, align 8
  %39 = load ptr, ptr %8, align 8
  %40 = load i32, ptr %9, align 4
  %41 = sext i32 %40 to i64
  %42 = getelementptr inbounds i8, ptr %39, i64 %41
  %43 = load i8, ptr %42, align 1
  %44 = sext i8 %43 to i32
  %45 = call i32 @Vec_IntEntry(ptr noundef %38, i32 noundef %44)
  %46 = load i32, ptr %7, align 4
  %47 = load i32, ptr %9, align 4
  %48 = lshr i32 %46, %47
  %49 = and i32 %48, 1
  %50 = call i32 @Abc_LitNotCond(i32 noundef %45, i32 noundef %49)
  %51 = load ptr, ptr @s_DarLib, align 8
  %52 = getelementptr inbounds %struct.Dar_Lib_t_, ptr %51, i32 0, i32 27
  %53 = load ptr, ptr %52, align 8
  %54 = load i32, ptr %9, align 4
  %55 = sext i32 %54 to i64
  %56 = getelementptr inbounds %struct.Dar_LibDat_t_, ptr %53, i64 %55
  %57 = getelementptr inbounds %struct.Dar_LibDat_t_, ptr %56, i32 0, i32 0
  store i32 %50, ptr %57, align 8
  %58 = load ptr, ptr %4, align 8
  %59 = load ptr, ptr %4, align 8
  %60 = load ptr, ptr @s_DarLib, align 8
  %61 = getelementptr inbounds %struct.Dar_Lib_t_, ptr %60, i32 0, i32 27
  %62 = load ptr, ptr %61, align 8
  %63 = load i32, ptr %9, align 4
  %64 = sext i32 %63 to i64
  %65 = getelementptr inbounds %struct.Dar_LibDat_t_, ptr %62, i64 %64
  %66 = getelementptr inbounds %struct.Dar_LibDat_t_, ptr %65, i32 0, i32 0
  %67 = load i32, ptr %66, align 8
  %68 = call ptr @Gia_ObjFromLit(ptr noundef %59, i32 noundef %67)
  %69 = call ptr @Gia_Regular(ptr noundef %68)
  %70 = call i32 @Gia_ObjLevel(ptr noundef %58, ptr noundef %69)
  %71 = load ptr, ptr @s_DarLib, align 8
  %72 = getelementptr inbounds %struct.Dar_Lib_t_, ptr %71, i32 0, i32 27
  %73 = load ptr, ptr %72, align 8
  %74 = load i32, ptr %9, align 4
  %75 = sext i32 %74 to i64
  %76 = getelementptr inbounds %struct.Dar_LibDat_t_, ptr %73, i64 %75
  %77 = getelementptr inbounds %struct.Dar_LibDat_t_, ptr %76, i32 0, i32 1
  store i32 %70, ptr %77, align 8
  br label %78

78:                                               ; preds = %37
  %79 = load i32, ptr %9, align 4
  %80 = add nsw i32 %79, 1
  store i32 %80, ptr %9, align 4
  br label %32, !llvm.loop !50

81:                                               ; preds = %32
  ret i32 1
}