; Function Attrs: nounwind uwtable
define noundef i32 @Dar2_LibCutMatch(ptr noundef readonly captures(none) %0, ptr noundef readonly captures(none) %1, i32 noundef %2) local_unnamed_addr #0 {
  %4 = load ptr, ptr @s_DarLib, align 8
  %5 = getelementptr inbounds nuw i8, ptr %4, i64 16128
  %6 = load ptr, ptr %5, align 8
  %7 = zext i32 %2 to i64
  %8 = getelementptr inbounds nuw i8, ptr %6, i64 %7
  %9 = load i8, ptr %8, align 1
  %10 = sext i8 %9 to i32
  %11 = getelementptr inbounds nuw i8, ptr %4, i64 16112
  %12 = load ptr, ptr %11, align 8
  %13 = getelementptr inbounds nuw i8, ptr %4, i64 16136
  %14 = load ptr, ptr %13, align 8
  %15 = getelementptr inbounds nuw i8, ptr %14, i64 %7
  %16 = load i8, ptr %15, align 1
  %17 = sext i8 %16 to i64
  %18 = getelementptr inbounds ptr, ptr %12, i64 %17
  %19 = load ptr, ptr %18, align 8
  %20 = getelementptr i8, ptr %1, i64 4
  %.val18 = load i32, ptr %20, align 4
  %21 = icmp sgt i32 %.val18, 0
  br i1 %21, label %.lr.ph, label %._crit_edge

.lr.ph:                                           ; preds = %3
  %22 = getelementptr i8, ptr %1, i64 8
  %23 = getelementptr i8, ptr %0, i64 32
  %24 = getelementptr i8, ptr %0, i64 160
  br label %25

25:                                               ; preds = %.lr.ph, %25
  %26 = phi ptr [ %4, %.lr.ph ], [ %56, %25 ]
  %indvars.iv = phi i64 [ 0, %.lr.ph ], [ %indvars.iv.next, %25 ]
  %27 = getelementptr inbounds nuw i8, ptr %19, i64 %indvars.iv
  %28 = load i8, ptr %27, align 1
  %.val14 = load ptr, ptr %22, align 8
  %29 = sext i8 %28 to i64
  %30 = getelementptr inbounds i32, ptr %.val14, i64 %29
  %31 = load i32, ptr %30, align 4
  %32 = trunc nuw nsw i64 %indvars.iv to i32
  %33 = lshr i32 %10, %32
  %34 = and i32 %33, 1
  %35 = xor i32 %31, %34
  %36 = getelementptr inbounds nuw i8, ptr %26, i64 16096
  %37 = load ptr, ptr %36, align 8
  %38 = getelementptr inbounds nuw %struct.Dar_LibDat_t_, ptr %37, i64 %indvars.iv
  store i32 %35, ptr %38, align 8
  %39 = load ptr, ptr %36, align 8
  %40 = getelementptr inbounds nuw %struct.Dar_LibDat_t_, ptr %39, i64 %indvars.iv
  %41 = load i32, ptr %40, align 8
  %.val15 = load ptr, ptr %23, align 8
  %42 = ashr i32 %41, 1
  %43 = sext i32 %42 to i64
  %44 = getelementptr inbounds %struct.Gia_Obj_t_, ptr %.val15, i64 %43
  %45 = ptrtoint ptr %44 to i64
  %46 = and i64 %45, -2
  %.val17 = load ptr, ptr %24, align 8
  %47 = ptrtoint ptr %.val15 to i64
  %48 = sub i64 %46, %47
  %49 = sdiv exact i64 %48, 12
  %50 = trunc i64 %49 to i32
  %51 = add nsw i32 %50, 1
  tail call fastcc void @Vec_IntFillExtra(ptr noundef %.val17, i32 noundef %51)
  %52 = getelementptr i8, ptr %.val17, i64 8
  %.val.i.i.i = load ptr, ptr %52, align 8
  %sext.i = shl i64 %49, 32
  %53 = ashr exact i64 %sext.i, 30
  %54 = getelementptr inbounds i8, ptr %.val.i.i.i, i64 %53
  %55 = load i32, ptr %54, align 4
  %56 = load ptr, ptr @s_DarLib, align 8
  %57 = getelementptr inbounds nuw i8, ptr %56, i64 16096
  %58 = load ptr, ptr %57, align 8
  %59 = getelementptr inbounds nuw %struct.Dar_LibDat_t_, ptr %58, i64 %indvars.iv, i32 1
  store i32 %55, ptr %59, align 8
  %indvars.iv.next = add nuw nsw i64 %indvars.iv, 1
  %.val = load i32, ptr %20, align 4
  %60 = sext i32 %.val to i64
  %61 = icmp slt i64 %indvars.iv.next, %60
  br i1 %61, label %25, label %._crit_edge, !llvm.loop !42

._crit_edge:                                      ; preds = %25, %3
  ret i32 1
}